target datalayout = "e-m:e-p270:32:32-p271:32:32-p272:64:64-i64:64-i128:128-f80:128-n8:16:32:64-S128"
target triple = "x86_64-pc-linux-gnu"

; Function Attrs: mustprogress uwtable
define hidden noundef ptr @_Z23pj_create_argv_internalP6pj_ctxiPPc(ptr noundef %0, i32 noundef %1, ptr noundef %2) #0 {
  %4 = alloca ptr, align 8
  %5 = alloca ptr, align 8
  %6 = alloca i32, align 4
  %7 = alloca ptr, align 8
  %8 = alloca i32, align 4
  %9 = alloca ptr, align 8
  %10 = alloca i32, align 4
  %11 = alloca i32, align 4
  store ptr %0, ptr %5, align 8, !tbaa !3
  store i32 %1, ptr %6, align 4, !tbaa !17
  store ptr %2, ptr %7, align 8, !tbaa !12
  %12 = load ptr, ptr %5, align 8, !tbaa !3
  %13 = icmp eq ptr null, %12
  br i1 %13, label %14, label %16

14:                                               ; preds = %3
  %15 = call noundef ptr @_Z18pj_get_default_ctxv()
  store ptr %15, ptr %5, align 8, !tbaa !3
  br label %16

16:                                               ; preds = %14, %3
  %17 = load ptr, ptr %7, align 8, !tbaa !12
  %18 = icmp eq ptr null, %17
  br i1 %18, label %19, label %21

19:                                               ; preds = %16
  %20 = load ptr, ptr %5, align 8, !tbaa !3
  call void @_Z22proj_context_errno_setP6pj_ctxi(ptr noundef %20, i32 noundef 1026)
  store ptr null, ptr %4, align 8
  br label %39

21:                                               ; preds = %16
  call void @llvm.lifetime.start.p0(i64 4, ptr %8) #15
  %22 = load ptr, ptr %5, align 8, !tbaa !3
  %23 = call i32 @proj_context_get_use_proj4_init_rules(ptr noundef %22, i32 noundef 0)
  store i32 %23, ptr %8, align 4, !tbaa !17
  call void @llvm.lifetime.start.p0(i64 8, ptr %9) #15
  %24 = load ptr, ptr %5, align 8, !tbaa !3
  %25 = load i32, ptr %6, align 4, !tbaa !17
  %26 = load ptr, ptr %7, align 8, !tbaa !12
  %27 = load i32, ptr %8, align 4, !tbaa !17
  %28 = call noundef ptr @_Z32pj_init_ctx_with_allow_init_epsgP6pj_ctxiPPci(ptr noundef %24, i32 noundef %25, ptr noundef %26, i32 noundef %27)
  store ptr %28, ptr %9, align 8, !tbaa !15
  call void @llvm.lifetime.start.p0(i64 4, ptr %10) #15
  %29 = load ptr, ptr %9, align 8, !tbaa !15
  %30 = call noundef i32 @_ZL21cs2cs_emulation_setupP8PJconsts(ptr noundef %29)
  store i32 %30, ptr %10, align 4, !tbaa !17
  %31 = load i32, ptr %10, align 4, !tbaa !17
  %32 = icmp eq i32 0, %31
  br i1 %32, label %33, label %36

33:                                               ; preds = %21
  %34 = load ptr, ptr %9, align 8, !tbaa !15
  %35 = call ptr @proj_destroy(ptr noundef %34)
  store ptr %35, ptr %4, align 8
  store i32 1, ptr %11, align 4
  br label %38

36:                                               ; preds = %21
  %37 = load ptr, ptr %9, align 8, !tbaa !15
  store ptr %37, ptr %4, align 8
  store i32 1, ptr %11, align 4
  br label %38

38:                                               ; preds = %36, %33
  call void @llvm.lifetime.end.p0(i64 4, ptr %10) #15
  call void @llvm.lifetime.end.p0(i64 8, ptr %9) #15
  call void @llvm.lifetime.end.p0(i64 4, ptr %8) #15
  br label %39

39:                                               ; preds = %38, %19
  %40 = load ptr, ptr %4, align 8
  ret ptr %40
}

; Function Attrs: mustprogress uwtable
define hidden noundef ptr @_Z18pj_create_internalP6pj_ctxPKc(ptr noundef %0, ptr noundef %1) #0 {
  %3 = alloca ptr, align 8
  %4 = alloca ptr, align 8
  %5 = alloca ptr, align 8
  %6 = alloca ptr, align 8
  %7 = alloca ptr, align 8
  %8 = alloca i64, align 8
  %9 = alloca i64, align 8
  %10 = alloca i32, align 4
  %11 = alloca ptr, align 8
  store ptr %0, ptr %4, align 8, !tbaa !3
  store ptr %1, ptr %5, align 8, !tbaa !8
  call void @llvm.lifetime.start.p0(i64 8, ptr %6) #15
  call void @llvm.lifetime.start.p0(i64 8, ptr %7) #15
  call void @llvm.lifetime.start.p0(i64 8, ptr %8) #15
  call void @llvm.lifetime.start.p0(i64 8, ptr %9) #15
  %12 = load ptr, ptr %4, align 8, !tbaa !3
  %13 = icmp eq ptr null, %12
  br i1 %13, label %14, label %16

14:                                               ; preds = %2
  %15 = call noundef ptr @_Z18pj_get_default_ctxv()
  store ptr %15, ptr %4, align 8, !tbaa !3
  br label %16

16:                                               ; preds = %14, %2
  %17 = load ptr, ptr %5, align 8, !tbaa !8
  %18 = call i64 @strlen(ptr noundef %17) #16
  store i64 %18, ptr %9, align 8, !tbaa !10
  %19 = load i64, ptr %9, align 8, !tbaa !10
  %20 = add i64 %19, 1
  %21 = call noalias ptr @malloc(i64 noundef %20) #17
  store ptr %21, ptr %6, align 8, !tbaa !8
  %22 = load ptr, ptr %6, align 8, !tbaa !8
  %23 = icmp eq ptr null, %22
  br i1 %23, label %24, label %26

24:                                               ; preds = %16
  %25 = load ptr, ptr %4, align 8, !tbaa !3
  call void @_Z22proj_context_errno_setP6pj_ctxi(ptr noundef %25, i32 noundef 4096)
  store ptr null, ptr %3, align 8
  store i32 1, ptr %10, align 4
  br label %55

26:                                               ; preds = %16
  %27 = load ptr, ptr %6, align 8, !tbaa !8
  %28 = load ptr, ptr %5, align 8, !tbaa !8
  %29 = call ptr @strcpy(ptr noundef %27, ptr noundef %28) #15
  %30 = load ptr, ptr %6, align 8, !tbaa !8
  %31 = call noundef i64 @_Z12pj_trim_argcPc(ptr noundef %30)
  store i64 %31, ptr %8, align 8, !tbaa !10
  %32 = load i64, ptr %8, align 8, !tbaa !10
  %33 = icmp eq i64 %32, 0
  br i1 %33, label %34, label %37

34:                                               ; preds = %26
  %35 = load ptr, ptr %6, align 8, !tbaa !8
  call void @free(ptr noundef %35) #15
  %36 = load ptr, ptr %4, align 8, !tbaa !3
  call void @_Z22proj_context_errno_setP6pj_ctxi(ptr noundef %36, i32 noundef 1026)
  store ptr null, ptr %3, align 8
  store i32 1, ptr %10, align 4
  br label %55

37:                                               ; preds = %26
  %38 = load i64, ptr %8, align 8, !tbaa !10
  %39 = load ptr, ptr %6, align 8, !tbaa !8
  %40 = call noundef ptr @_Z12pj_trim_argvmPc(i64 noundef %38, ptr noundef %39)
  store ptr %40, ptr %7, align 8, !tbaa !12
  %41 = load ptr, ptr %7, align 8, !tbaa !12
  %42 = icmp ne ptr %41, null
  br i1 %42, label %46, label %43

43:                                               ; preds = %37
  %44 = load ptr, ptr %6, align 8, !tbaa !8
  call void @free(ptr noundef %44) #15
  %45 = load ptr, ptr %4, align 8, !tbaa !3
  call void @_Z22proj_context_errno_setP6pj_ctxi(ptr noundef %45, i32 noundef 4096)
  store ptr null, ptr %3, align 8
  store i32 1, ptr %10, align 4
  br label %55

46:                                               ; preds = %37
  call void @llvm.lifetime.start.p0(i64 8, ptr %11) #15
  %47 = load ptr, ptr %4, align 8, !tbaa !3
  %48 = load i64, ptr %8, align 8, !tbaa !10
  %49 = trunc i64 %48 to i32
  %50 = load ptr, ptr %7, align 8, !tbaa !12
  %51 = call noundef ptr @_Z23pj_create_argv_internalP6pj_ctxiPPc(ptr noundef %47, i32 noundef %49, ptr noundef %50)
  store ptr %51, ptr %11, align 8, !tbaa !15
  %52 = load ptr, ptr %7, align 8, !tbaa !12
  call void @free(ptr noundef %52) #15
  %53 = load ptr, ptr %6, align 8, !tbaa !8
  call void @free(ptr noundef %53) #15
  %54 = load ptr, ptr %11, align 8, !tbaa !15
  store ptr %54, ptr %3, align 8
  store i32 1, ptr %10, align 4
  call void @llvm.lifetime.end.p0(i64 8, ptr %11) #15
  br label %55

55:                                               ; preds = %46, %43, %34, %24
  call void @llvm.lifetime.end.p0(i64 8, ptr %9) #15
  call void @llvm.lifetime.end.p0(i64 8, ptr %8) #15
  call void @llvm.lifetime.end.p0(i64 8, ptr %7) #15
  call void @llvm.lifetime.end.p0(i64 8, ptr %6) #15
  %56 = load ptr, ptr %3, align 8
  ret ptr %56
}