; Function Attrs: mustprogress uwtable
define hidden noundef ptr @_Z18pj_create_internalP6pj_ctxPKc(ptr noundef %0, ptr noundef readonly captures(none) %1) local_unnamed_addr #0 {
  %3 = icmp eq ptr %0, null
  br i1 %3, label %4, label %6

4:                                                ; preds = %2
  %5 = tail call noundef ptr @_Z18pj_get_default_ctxv()
  br label %6

6:                                                ; preds = %4, %2
  %.022 = phi ptr [ %5, %4 ], [ %0, %2 ]
  %7 = tail call i64 @strlen(ptr noundef nonnull dereferenceable(1) %1) #13
  %8 = add i64 %7, 1
  %9 = tail call noalias ptr @malloc(i64 noundef %8) #14
  %10 = icmp eq ptr %9, null
  br i1 %10, label %11, label %12

11:                                               ; preds = %6
  tail call void @_Z22proj_context_errno_setP6pj_ctxi(ptr noundef %.022, i32 noundef 4096)
  br label %32

12:                                               ; preds = %6
  %13 = tail call ptr @strcpy(ptr noundef nonnull dereferenceable(1) %9, ptr noundef nonnull dereferenceable(1) %1) #15
  %14 = tail call noundef i64 @_Z12pj_trim_argcPc(ptr noundef nonnull %9)
  %15 = icmp eq i64 %14, 0
  br i1 %15, label %16, label %17

16:                                               ; preds = %12
  tail call void @free(ptr noundef nonnull %9) #15
  tail call void @_Z22proj_context_errno_setP6pj_ctxi(ptr noundef %.022, i32 noundef 1026)
  br label %32

17:                                               ; preds = %12
  %18 = tail call noundef ptr @_Z12pj_trim_argvmPc(i64 noundef %14, ptr noundef nonnull %9)
  %.not = icmp eq ptr %18, null
  br i1 %.not, label %19, label %20

19:                                               ; preds = %17
  tail call void @free(ptr noundef nonnull %9) #15
  tail call void @_Z22proj_context_errno_setP6pj_ctxi(ptr noundef %.022, i32 noundef 4096)
  br label %32

20:                                               ; preds = %17
  %21 = trunc i64 %14 to i32
  %22 = icmp eq ptr %.022, null
  br i1 %22, label %23, label %25

23:                                               ; preds = %20
  %24 = tail call noundef ptr @_Z18pj_get_default_ctxv()
  br label %25

25:                                               ; preds = %20, %23
  %.012.i = phi ptr [ %24, %23 ], [ %.022, %20 ]
  %26 = tail call i32 @proj_context_get_use_proj4_init_rules(ptr noundef %.012.i, i32 noundef 0)
  %27 = tail call noundef ptr @_Z32pj_init_ctx_with_allow_init_epsgP6pj_ctxiPPci(ptr noundef %.012.i, i32 noundef %21, ptr noundef nonnull %18, i32 noundef %26)
  %28 = tail call fastcc noundef i32 @_ZL21cs2cs_emulation_setupP8PJconsts(ptr noundef %27)
  %29 = icmp eq i32 %28, 0
  br i1 %29, label %30, label %_Z23pj_create_argv_internalP6pj_ctxiPPc.exit

30:                                               ; preds = %25
  %31 = tail call ptr @proj_destroy(ptr noundef %27)
  br label %_Z23pj_create_argv_internalP6pj_ctxiPPc.exit

_Z23pj_create_argv_internalP6pj_ctxiPPc.exit:     ; preds = %25, %30
  %.0.i = phi ptr [ %31, %30 ], [ %27, %25 ]
  tail call void @free(ptr noundef nonnull %18) #15
  tail call void @free(ptr noundef nonnull %9) #15
  br label %32

32:                                               ; preds = %_Z23pj_create_argv_internalP6pj_ctxiPPc.exit, %19, %16, %11
  %.0 = phi ptr [ null, %11 ], [ null, %16 ], [ %.0.i, %_Z23pj_create_argv_internalP6pj_ctxiPPc.exit ], [ null, %19 ]
  ret ptr %.0
}